target datalayout = "e-m:e-p270:32:32-p271:32:32-p272:64:64-i64:64-i128:128-f80:128-n8:16:32:64-S128"
target triple = "x86_64-unknown-linux-gnu"

%"class.probe::result" = type { double }
%class.arith_util = type { ptr, ptr }
%class.goal = type <{ ptr, %class.ref, %class.ref.0, %class.ref.1, i32, [4 x i8], %"class.std::__cxx11::basic_string", %"class.parray_manager<ast_manager::expr_array_config>::ref", %"class.parray_manager<ast_manager::expr_array_config>::ref", %"class.parray_manager<ast_manager::expr_dependency_array_config>::ref", i32, [4 x i8] }>
%class.ref = type { ptr }
%class.ref.0 = type { ptr }
%class.ref.1 = type { ptr }
%"class.std::__cxx11::basic_string" = type { %"struct.std::__cxx11::basic_string<char>::_Alloc_hider", i64, %union.anon }
%"struct.std::__cxx11::basic_string<char>::_Alloc_hider" = type { ptr }
%union.anon = type { i64, [8 x i8] }
%"class.parray_manager<ast_manager::expr_array_config>::ref" = type <{ ptr, i32, [4 x i8] }>
%"class.parray_manager<ast_manager::expr_dependency_array_config>::ref" = type <{ ptr, i32, [4 x i8] }>
%"struct.(anonymous namespace)::is_non_qflira_functor" = type <{ ptr, %class.arith_util, i8, i8, [6 x i8] }>

; Function Attrs: mustprogress uwtable
define internal void @_ZN12_GLOBAL__N_121is_non_qflira_functorC2ER11ast_managerbb(ptr noundef nonnull align 8 dereferenceable(26) %this, ptr noundef nonnull align 8 dereferenceable(976) %_m, i1 noundef zeroext %_int, i1 noundef zeroext %_real) unnamed_addr #4 align 2 {
entry:
  %this.addr = alloca ptr, align 8
  %_m.addr = alloca ptr, align 8
  %_int.addr = alloca i8, align 1
  %_real.addr = alloca i8, align 1
  store ptr %this, ptr %this.addr, align 8
  store ptr %_m, ptr %_m.addr, align 8
  %frombool = zext i1 %_int to i8
  store i8 %frombool, ptr %_int.addr, align 1
  %frombool1 = zext i1 %_real to i8
  store i8 %frombool1, ptr %_real.addr, align 1
  %this2 = load ptr, ptr %this.addr, align 8
  %m = getelementptr inbounds %"struct.(anonymous namespace)::is_non_qflira_functor", ptr %this2, i32 0, i32 0
  %0 = load ptr, ptr %_m.addr, align 8
  store ptr %0, ptr %m, align 8
  %u = getelementptr inbounds %"struct.(anonymous namespace)::is_non_qflira_functor", ptr %this2, i32 0, i32 1
  %m3 = getelementptr inbounds %"struct.(anonymous namespace)::is_non_qflira_functor", ptr %this2, i32 0, i32 0
  %1 = load ptr, ptr %m3, align 8
  call void @_ZN10arith_utilC1ER11ast_manager(ptr noundef nonnull align 8 dereferenceable(16) %u, ptr noundef nonnull align 8 dereferenceable(976) %1)
  %m_int = getelementptr inbounds %"struct.(anonymous namespace)::is_non_qflira_functor", ptr %this2, i32 0, i32 2
  %2 = load i8, ptr %_int.addr, align 1
  %tobool = trunc i8 %2 to i1
  %frombool4 = zext i1 %tobool to i8
  store i8 %frombool4, ptr %m_int, align 8
  %m_real = getelementptr inbounds %"struct.(anonymous namespace)::is_non_qflira_functor", ptr %this2, i32 0, i32 3
  %3 = load i8, ptr %_real.addr, align 1
  %tobool5 = trunc i8 %3 to i1
  %frombool6 = zext i1 %tobool5 to i8
  store i8 %frombool6, ptr %m_real, align 1
  ret void
}

; Function Attrs: mustprogress nounwind uwtable
define linkonce_odr hidden noundef nonnull align 8 dereferenceable(976) ptr @_ZNK4goal1mEv(ptr noundef nonnull align 8 dereferenceable(124) %this) #5 comdat align 2 {
entry:
  %this.addr = alloca ptr, align 8
  store ptr %this, ptr %this.addr, align 8
  %this1 = load ptr, ptr %this.addr, align 8
  %m_manager = getelementptr inbounds %class.goal, ptr %this1, i32 0, i32 0
  %0 = load ptr, ptr %m_manager, align 8
  ret ptr %0
}

; Function Attrs: mustprogress uwtable
define internal noundef zeroext i1 @_ZN12_GLOBAL__N_19is_qfliraERK4goal(ptr noundef nonnull align 8 dereferenceable(124) %g) #4 {
entry:
  %g.addr = alloca ptr, align 8
  %p = alloca %"struct.(anonymous namespace)::is_non_qflira_functor", align 8
  store ptr %g, ptr %g.addr, align 8
  %0 = load ptr, ptr %g.addr, align 8
  %call = call noundef nonnull align 8 dereferenceable(976) ptr @_ZNK4goal1mEv(ptr noundef nonnull align 8 dereferenceable(124) %0)
  call void @_ZN12_GLOBAL__N_121is_non_qflira_functorC2ER11ast_managerbb(ptr noundef nonnull align 8 dereferenceable(26) %p, ptr noundef nonnull align 8 dereferenceable(976) %call, i1 noundef zeroext true, i1 noundef zeroext true)
  %1 = load ptr, ptr %g.addr, align 8
  %call1 = call noundef zeroext i1 @_Z4testIN12_GLOBAL__N_121is_non_qflira_functorEEbRK4goalRT_(ptr noundef nonnull align 8 dereferenceable(124) %1, ptr noundef nonnull align 8 dereferenceable(26) %p)
  %lnot = xor i1 %call1, true
  ret i1 %lnot
}

; Function Attrs: mustprogress nounwind uwtable
define linkonce_odr hidden void @_ZN5probe6resultC2Eb(ptr noundef nonnull align 8 dereferenceable(8) %this, i1 noundef zeroext %b) unnamed_addr #5 comdat align 2 {
entry:
  %this.addr = alloca ptr, align 8
  %b.addr = alloca i8, align 1
  store ptr %this, ptr %this.addr, align 8
  %frombool = zext i1 %b to i8
  store i8 %frombool, ptr %b.addr, align 1
  %this1 = load ptr, ptr %this.addr, align 8
  %m_value = getelementptr inbounds %"class.probe::result", ptr %this1, i32 0, i32 0
  %0 = load i8, ptr %b.addr, align 1
  %tobool = trunc i8 %0 to i1
  %cond = select i1 %tobool, double 1.000000e+00, double 0.000000e+00
  store double %cond, ptr %m_value, align 8
  ret void
}

; Function Attrs: mustprogress uwtable
define internal noundef zeroext i1 @_ZN12_GLOBAL__N_16is_mipERK4goal(ptr noundef nonnull align 8 dereferenceable(124) %g) #4 {
entry:
  %retval = alloca i1, align 1
  %g.addr = alloca ptr, align 8
  store ptr %g, ptr %g.addr, align 8
  %0 = load ptr, ptr %g.addr, align 8
  %call = call noundef zeroext i1 @_ZN12_GLOBAL__N_19is_qfliraERK4goal(ptr noundef nonnull align 8 dereferenceable(124) %0)
  br i1 %call, label %if.end, label %if.then

if.then:                                          ; preds = %entry
  store i1 false, ptr %retval, align 1
  br label %return

if.end:                                           ; preds = %entry
  %1 = load ptr, ptr %g.addr, align 8
  %call1 = call noundef zeroext i1 @_Z12has_term_iteRK4goal(ptr noundef nonnull align 8 dereferenceable(124) %1)
  br i1 %call1, label %if.then2, label %if.end3

if.then2:                                         ; preds = %if.end
  store i1 false, ptr %retval, align 1
  br label %return

if.end3:                                          ; preds = %if.end
  %2 = load ptr, ptr %g.addr, align 8
  %call4 = call noundef zeroext i1 @_ZN12_GLOBAL__N_15is_lpERK4goal(ptr noundef nonnull align 8 dereferenceable(124) %2)
  store i1 %call4, ptr %retval, align 1
  br label %return

return:                                           ; preds = %if.end3, %if.then2, %if.then
  %3 = load i1, ptr %retval, align 1
  ret i1 %3
}

; Function Attrs: mustprogress uwtable
define internal double @_ZN12_GLOBAL__N_112is_mip_probeclERK4goal(ptr noundef nonnull align 8 dereferenceable(12) %this, ptr noundef nonnull align 8 dereferenceable(124) %g) unnamed_addr #4 align 2 {
entry:
  %retval = alloca %"class.probe::result", align 8
  %this.addr = alloca ptr, align 8
  %g.addr = alloca ptr, align 8
  store ptr %this, ptr %this.addr, align 8
  store ptr %g, ptr %g.addr, align 8
  %0 = load ptr, ptr %g.addr, align 8
  %call = call noundef zeroext i1 @_ZN12_GLOBAL__N_16is_mipERK4goal(ptr noundef nonnull align 8 dereferenceable(124) %0)
  call void @_ZN5probe6resultC2Eb(ptr noundef nonnull align 8 dereferenceable(8) %retval, i1 noundef zeroext %call)
  %coerce.dive = getelementptr inbounds %"class.probe::result", ptr %retval, i32 0, i32 0
  %1 = load double, ptr %coerce.dive, align 8
  ret double %1
}